target datalayout = "e-m:e-p270:32:32-p271:32:32-p272:64:64-i64:64-i128:128-f80:128-n8:16:32:64-S128"
target triple = "x86_64-pc-linux-gnu"

; Function Attrs: null_pointer_is_valid sspstrong uwtable
define ptr @get_ascii_7bits_string(ptr noundef %0, ptr noundef %1, i32 noundef %2, i32 noundef %3) #0 {
  %5 = alloca ptr, align 8
  %6 = alloca ptr, align 8
  %7 = alloca i32, align 4
  %8 = alloca i32, align 4
  %9 = alloca ptr, align 8
  %10 = alloca i32, align 4
  %11 = alloca i8, align 1
  %12 = alloca i8, align 1
  %13 = alloca i8, align 1
  %14 = alloca ptr, align 8
  %15 = alloca i32, align 4
  store ptr %0, ptr %5, align 8
  store ptr %1, ptr %6, align 8
  store i32 %2, ptr %7, align 4
  store i32 %3, ptr %8, align 4
  call void @llvm.lifetime.start.p0(i64 8, ptr %9) #8
  call void @llvm.lifetime.start.p0(i64 4, ptr %10) #8
  call void @llvm.lifetime.start.p0(i64 1, ptr %11) #8
  call void @llvm.lifetime.start.p0(i64 1, ptr %12) #8
  call void @llvm.lifetime.start.p0(i64 1, ptr %13) #8
  store i8 0, ptr %13, align 1
  call void @llvm.lifetime.start.p0(i64 8, ptr %14) #8
  %16 = load ptr, ptr %6, align 8
  store ptr %16, ptr %14, align 8
  call void @llvm.lifetime.start.p0(i64 4, ptr %15) #8
  %17 = load i32, ptr %7, align 4
  %18 = and i32 %17, 7
  store i32 %18, ptr %15, align 4
  %19 = load i32, ptr %15, align 4
  %20 = icmp ne i32 %19, 0
  br i1 %20, label %22, label %21

21:                                               ; preds = %4
  store i32 7, ptr %15, align 4
  br label %22

22:                                               ; preds = %21, %4
  %23 = load ptr, ptr %5, align 8
  %24 = load i32, ptr %8, align 4
  %25 = add i32 %24, 1
  %26 = sext i32 %25 to i64
  %27 = call noalias ptr @wmem_strbuf_new_sized(ptr noundef %23, i64 noundef %26)
  store ptr %27, ptr %9, align 8
  store i32 0, ptr %10, align 4
  br label %28

28:                                               ; preds = %78, %22
  %29 = load i32, ptr %10, align 4
  %30 = load i32, ptr %8, align 4
  %31 = icmp slt i32 %29, %30
  br i1 %31, label %32, label %81

32:                                               ; preds = %28
  %33 = load ptr, ptr %6, align 8
  %34 = load i8, ptr %33, align 1
  store i8 %34, ptr %11, align 1
  %35 = load i8, ptr %11, align 1
  %36 = zext i8 %35 to i32
  %37 = load i32, ptr %15, align 4
  %38 = sub i32 8, %37
  %39 = ashr i32 %36, %38
  %40 = load i8, ptr %13, align 1
  %41 = zext i8 %40 to i32
  %42 = or i32 %39, %41
  %43 = trunc i32 %42 to i8
  store i8 %43, ptr %12, align 1
  %44 = load i8, ptr %11, align 1
  %45 = zext i8 %44 to i32
  %46 = load i32, ptr %15, align 4
  %47 = sub i32 %46, 1
  %48 = shl i32 %45, %47
  %49 = and i32 %48, 127
  %50 = trunc i32 %49 to i8
  store i8 %50, ptr %13, align 1
  %51 = load ptr, ptr %14, align 8
  %52 = load ptr, ptr %6, align 8
  %53 = icmp ne ptr %51, %52
  br i1 %53, label %57, label %54

54:                                               ; preds = %32
  %55 = load i32, ptr %15, align 4
  %56 = icmp eq i32 %55, 7
  br i1 %56, label %57, label %62

57:                                               ; preds = %54, %32
  %58 = load ptr, ptr %9, align 8
  %59 = load i8, ptr %12, align 1
  call void @wmem_strbuf_append_c(ptr noundef %58, i8 noundef signext %59)
  %60 = load i32, ptr %10, align 4
  %61 = add i32 %60, 1
  store i32 %61, ptr %10, align 4
  br label %62

62:                                               ; preds = %57, %54
  %63 = load i32, ptr %15, align 4
  %64 = icmp eq i32 %63, 1
  br i1 %64, label %65, label %74

65:                                               ; preds = %62
  %66 = load i32, ptr %10, align 4
  %67 = load i32, ptr %8, align 4
  %68 = icmp slt i32 %66, %67
  br i1 %68, label %69, label %74

69:                                               ; preds = %65
  %70 = load ptr, ptr %9, align 8
  %71 = load i8, ptr %13, align 1
  call void @wmem_strbuf_append_c(ptr noundef %70, i8 noundef signext %71)
  %72 = load i32, ptr %10, align 4
  %73 = add i32 %72, 1
  store i32 %73, ptr %10, align 4
  store i32 7, ptr %15, align 4
  store i8 0, ptr %13, align 1
  br label %77

74:                                               ; preds = %65, %62
  %75 = load i32, ptr %15, align 4
  %76 = add i32 %75, -1
  store i32 %76, ptr %15, align 4
  br label %77

77:                                               ; preds = %74, %69
  br label %78

78:                                               ; preds = %77
  %79 = load ptr, ptr %6, align 8
  %80 = getelementptr i8, ptr %79, i32 1
  store ptr %80, ptr %6, align 8
  br label %28, !llvm.loop !19

81:                                               ; preds = %28
  %82 = load ptr, ptr %9, align 8
  %83 = call ptr @wmem_strbuf_finalize(ptr noundef %82)
  call void @llvm.lifetime.end.p0(i64 4, ptr %15) #8
  call void @llvm.lifetime.end.p0(i64 8, ptr %14) #8
  call void @llvm.lifetime.end.p0(i64 1, ptr %13) #8
  call void @llvm.lifetime.end.p0(i64 1, ptr %12) #8
  call void @llvm.lifetime.end.p0(i64 1, ptr %11) #8
  call void @llvm.lifetime.end.p0(i64 4, ptr %10) #8
  call void @llvm.lifetime.end.p0(i64 8, ptr %9) #8
  ret ptr %83
}