; Function Attrs: null_pointer_is_valid sspstrong uwtable
define ptr @get_ascii_7bits_string(ptr noundef %0, ptr noundef readonly captures(address) %1, i32 noundef %2, i32 noundef %3) local_unnamed_addr #0 {
  %5 = add i32 %3, 1
  %6 = sext i32 %5 to i64
  %7 = tail call noalias ptr @wmem_strbuf_new_sized(ptr noundef %0, i64 noundef %6)
  %8 = icmp sgt i32 %3, 0
  br i1 %8, label %.lr.ph.preheader, label %._crit_edge

.lr.ph.preheader:                                 ; preds = %4
  %9 = and i32 %2, 7
  %.not = icmp eq i32 %9, 0
  %spec.store.select = select i1 %.not, i32 7, i32 %9
  br label %.lr.ph

.lr.ph:                                           ; preds = %.lr.ph.preheader, %29
  %.038 = phi i32 [ %.1, %29 ], [ %spec.store.select, %.lr.ph.preheader ]
  %.02837 = phi ptr [ %30, %29 ], [ %1, %.lr.ph.preheader ]
  %.02936 = phi i32 [ %.130, %29 ], [ 0, %.lr.ph.preheader ]
  %.03135 = phi i32 [ %.2, %29 ], [ 0, %.lr.ph.preheader ]
  %10 = load i8, ptr %.02837, align 1
  %11 = zext i8 %10 to i32
  %12 = add i32 %.038, -1
  %13 = shl i32 %11, %12
  %14 = and i32 %13, 127
  %15 = trunc nuw nsw i32 %14 to i8
  %16 = icmp ne ptr %1, %.02837
  %17 = icmp eq i32 %.038, 7
  %or.cond = select i1 %16, i1 true, i1 %17
  br i1 %or.cond, label %18, label %24

18:                                               ; preds = %.lr.ph
  %19 = sub i32 8, %.038
  %20 = lshr i32 %11, %19
  %21 = or i32 %20, %.02936
  %22 = trunc nuw i32 %21 to i8
  tail call void @wmem_strbuf_append_c(ptr noundef %7, i8 noundef signext %22)
  %23 = add nsw i32 %.03135, 1
  br label %24

24:                                               ; preds = %.lr.ph, %18
  %.132 = phi i32 [ %23, %18 ], [ %.03135, %.lr.ph ]
  %25 = icmp eq i32 %.038, 1
  %26 = icmp slt i32 %.132, %3
  %or.cond34 = and i1 %25, %26
  br i1 %or.cond34, label %27, label %29

27:                                               ; preds = %24
  tail call void @wmem_strbuf_append_c(ptr noundef %7, i8 noundef signext %15)
  %28 = add nsw i32 %.132, 1
  br label %29

29:                                               ; preds = %24, %27
  %.2 = phi i32 [ %28, %27 ], [ %.132, %24 ]
  %.130 = phi i32 [ 0, %27 ], [ %14, %24 ]
  %.1 = phi i32 [ 7, %27 ], [ %12, %24 ]
  %30 = getelementptr i8, ptr %.02837, i64 1
  %31 = icmp slt i32 %.2, %3
  br i1 %31, label %.lr.ph, label %._crit_edge, !llvm.loop !17

._crit_edge:                                      ; preds = %29, %4
  %32 = tail call ptr @wmem_strbuf_finalize(ptr noundef %7)
  ret ptr %32
}